target datalayout = "e-m:e-p270:32:32-p271:32:32-p272:64:64-i64:64-i128:128-f80:128-n8:16:32:64-S128"
target triple = "x86_64-pc-linux-gnu"

@.str.237 = private unnamed_addr constant [14 x i8] c"unknown group\00", align 1
@.str.238 = private unnamed_addr constant [16 x i8] c"%d bits EC (%s)\00", align 1
@.str.239 = private unnamed_addr constant [4 x i8] c"RSA\00", align 1
@.str.240 = private unnamed_addr constant [4 x i8] c"DSA\00", align 1
@.str.241 = private unnamed_addr constant [3 x i8] c"DH\00", align 1
@.str.242 = private unnamed_addr constant [11 x i8] c"%d bits %s\00", align 1

; Function Attrs: nounwind uwtable
define internal void @print_key_details(ptr noundef %0, ptr noundef %1) #0 {
  %3 = alloca ptr, align 8
  %4 = alloca ptr, align 8
  %5 = alloca i32, align 4
  %6 = alloca [80 x i8], align 16
  %7 = alloca i64, align 8
  %8 = alloca ptr, align 8
  store ptr %0, ptr %3, align 8, !tbaa !35
  store ptr %1, ptr %4, align 8, !tbaa !46
  call void @llvm.lifetime.start.p0(i64 4, ptr %5) #10
  %9 = load ptr, ptr %4, align 8, !tbaa !46
  %10 = call i32 @EVP_PKEY_get_id(ptr noundef %9)
  store i32 %10, ptr %5, align 4, !tbaa !4
  %11 = load i32, ptr %5, align 4, !tbaa !4
  %12 = icmp eq i32 %11, 408
  br i1 %12, label %13, label %27

13:                                               ; preds = %2
  call void @llvm.lifetime.start.p0(i64 80, ptr %6) #10
  call void @llvm.lifetime.start.p0(i64 8, ptr %7) #10
  %14 = load ptr, ptr %4, align 8, !tbaa !46
  %15 = getelementptr inbounds [80 x i8], ptr %6, i64 0, i64 0
  %16 = call i32 @EVP_PKEY_get_group_name(ptr noundef %14, ptr noundef %15, i64 noundef 80, ptr noundef %7)
  %17 = icmp ne i32 %16, 0
  br i1 %17, label %21, label %18

18:                                               ; preds = %13
  %19 = getelementptr inbounds [80 x i8], ptr %6, i64 0, i64 0
  %20 = call ptr @strcpy(ptr noundef %19, ptr noundef @.str.237) #10
  br label %21

21:                                               ; preds = %18, %13
  %22 = load ptr, ptr %3, align 8, !tbaa !35
  %23 = load ptr, ptr %4, align 8, !tbaa !46
  %24 = call i32 @EVP_PKEY_get_bits(ptr noundef %23)
  %25 = getelementptr inbounds [80 x i8], ptr %6, i64 0, i64 0
  %26 = call i32 (ptr, ptr, ...) @BIO_printf(ptr noundef %22, ptr noundef @.str.238, i32 noundef %24, ptr noundef %25)
  call void @llvm.lifetime.end.p0(i64 8, ptr %7) #10
  call void @llvm.lifetime.end.p0(i64 80, ptr %6) #10
  br label %41

27:                                               ; preds = %2
  call void @llvm.lifetime.start.p0(i64 8, ptr %8) #10
  %28 = load i32, ptr %5, align 4, !tbaa !4
  switch i32 %28, label %32 [
    i32 6, label %29
    i32 116, label %30
    i32 28, label %31
  ]

29:                                               ; preds = %27
  store ptr @.str.239, ptr %8, align 8, !tbaa !11
  br label %35

30:                                               ; preds = %27
  store ptr @.str.240, ptr %8, align 8, !tbaa !11
  br label %35

31:                                               ; preds = %27
  store ptr @.str.241, ptr %8, align 8, !tbaa !11
  br label %35

32:                                               ; preds = %27
  %33 = load i32, ptr %5, align 4, !tbaa !4
  %34 = call ptr @OBJ_nid2sn(i32 noundef %33)
  store ptr %34, ptr %8, align 8, !tbaa !11
  br label %35

35:                                               ; preds = %32, %31, %30, %29
  %36 = load ptr, ptr %3, align 8, !tbaa !35
  %37 = load ptr, ptr %4, align 8, !tbaa !46
  %38 = call i32 @EVP_PKEY_get_bits(ptr noundef %37)
  %39 = load ptr, ptr %8, align 8, !tbaa !11
  %40 = call i32 (ptr, ptr, ...) @BIO_printf(ptr noundef %36, ptr noundef @.str.242, i32 noundef %38, ptr noundef %39)
  call void @llvm.lifetime.end.p0(i64 8, ptr %8) #10
  br label %41

41:                                               ; preds = %35, %21
  call void @llvm.lifetime.end.p0(i64 4, ptr %5) #10
  ret void
}