; Function Attrs: nounwind uwtable
define internal fastcc void @print_key_details(ptr noundef %0, ptr noundef %1) unnamed_addr #7 {
  %3 = alloca [80 x i8], align 16
  %4 = alloca i64, align 8
  %5 = tail call i32 @EVP_PKEY_get_id(ptr noundef %1) #23
  switch i32 %5, label %14 [
    i32 408, label %6
    i32 6, label %16
    i32 116, label %12
    i32 28, label %13
  ]

6:                                                ; preds = %2
  call void @llvm.lifetime.start.p0(i64 80, ptr nonnull %3) #23
  call void @llvm.lifetime.start.p0(i64 8, ptr nonnull %4) #23
  %7 = call i32 @EVP_PKEY_get_group_name(ptr noundef %1, ptr noundef nonnull %3, i64 noundef 80, ptr noundef nonnull %4) #23
  %.not = icmp eq i32 %7, 0
  br i1 %.not, label %8, label %9

8:                                                ; preds = %6
  call void @llvm.memcpy.p0.p0.i64(ptr noundef nonnull align 16 dereferenceable(14) %3, ptr noundef nonnull align 1 dereferenceable(14) @.str.237, i64 14, i1 false) #23
  br label %9

9:                                                ; preds = %8, %6
  %10 = call i32 @EVP_PKEY_get_bits(ptr noundef %1) #23
  %11 = call i32 (ptr, ptr, ...) @BIO_printf(ptr noundef %0, ptr noundef nonnull @.str.238, i32 noundef %10, ptr noundef nonnull %3) #23
  call void @llvm.lifetime.end.p0(i64 8, ptr nonnull %4) #23
  call void @llvm.lifetime.end.p0(i64 80, ptr nonnull %3) #23
  br label %19

12:                                               ; preds = %2
  br label %16

13:                                               ; preds = %2
  br label %16

14:                                               ; preds = %2
  %15 = tail call ptr @OBJ_nid2sn(i32 noundef %5) #23
  br label %16

16:                                               ; preds = %2, %14, %13, %12
  %.0 = phi ptr [ %15, %14 ], [ @.str.241, %13 ], [ @.str.240, %12 ], [ @.str.239, %2 ]
  %17 = tail call i32 @EVP_PKEY_get_bits(ptr noundef %1) #23
  %18 = tail call i32 (ptr, ptr, ...) @BIO_printf(ptr noundef %0, ptr noundef nonnull @.str.242, i32 noundef %17, ptr noundef %.0) #23
  br label %19

19:                                               ; preds = %16, %9
  ret void
}